target datalayout = "e-m:e-p270:32:32-p271:32:32-p272:64:64-i64:64-i128:128-f80:128-n8:16:32:64-S128"
target triple = "x86_64-pc-linux-gnu"

%struct.AVFormatContext = type { ptr, ptr, ptr, ptr, ptr, i32, i32, ptr, i32, ptr, i32, ptr, ptr, i64, i64, i64, i32, i32, i32, i64, i64, ptr, i32, i32, ptr, i32, i32, i32, i32, ptr, i64, i32, i32, %struct.AVIOInterruptCB, i32, i32, i32, i32, i64, i32, i32, i32, i32, i32, i32, i32, i32, i32, i32, i32, i32, i64, i32, i32, i32, i32, i32, ptr, ptr, ptr, ptr, i32, ptr, ptr, ptr, ptr, i32, ptr, ptr, i64, ptr, ptr, ptr, i64 }
%struct.AVIOInterruptCB = type { ptr, ptr }
%struct.AVPacket = type { ptr, i64, i64, ptr, i32, i32, i32, ptr, i32, i64, i64, ptr, ptr, %struct.AVRational }
%struct.AVRational = type { i32, i32 }

; Function Attrs: alwaysinline nounwind uwtable
define internal i64 @avio_tell(ptr noundef %0) #3 {
  %2 = alloca ptr, align 8
  store ptr %0, ptr %2, align 8, !tbaa !62
  %3 = load ptr, ptr %2, align 8, !tbaa !62
  %4 = call i64 @avio_seek(ptr noundef %3, i64 noundef 0, i32 noundef 1)
  ret i64 %4
}

; Function Attrs: nounwind uwtable
define internal i32 @lvf_read_packet(ptr noundef %0, ptr noundef %1) #0 {
  %3 = alloca i32, align 4
  %4 = alloca ptr, align 8
  %5 = alloca ptr, align 8
  %6 = alloca i32, align 4
  %7 = alloca i32, align 4
  %8 = alloca i32, align 4
  %9 = alloca i32, align 4
  %10 = alloca i64, align 8
  %11 = alloca i32, align 4
  %12 = alloca i32, align 4
  %13 = alloca i32, align 4
  %14 = alloca i32, align 4
  store ptr %0, ptr %4, align 8, !tbaa !14
  store ptr %1, ptr %5, align 8, !tbaa !54
  call void @llvm.lifetime.start.p0(i64 4, ptr %6) #4
  call void @llvm.lifetime.start.p0(i64 4, ptr %7) #4
  call void @llvm.lifetime.start.p0(i64 4, ptr %8) #4
  call void @llvm.lifetime.start.p0(i64 4, ptr %9) #4
  call void @llvm.lifetime.start.p0(i64 8, ptr %10) #4
  call void @llvm.lifetime.start.p0(i64 4, ptr %11) #4
  call void @llvm.lifetime.start.p0(i64 4, ptr %12) #4
  store i32 0, ptr %12, align 4, !tbaa !31
  call void @llvm.lifetime.start.p0(i64 4, ptr %13) #4
  %15 = load ptr, ptr %4, align 8, !tbaa !14
  %16 = getelementptr inbounds nuw %struct.AVFormatContext, ptr %15, i32 0, i32 4
  %17 = load ptr, ptr %16, align 8, !tbaa !16
  %18 = call i64 @avio_tell(ptr noundef %17)
  store i64 %18, ptr %10, align 8, !tbaa !32
  br label %19

19:                                               ; preds = %104, %2
  %20 = load ptr, ptr %4, align 8, !tbaa !14
  %21 = getelementptr inbounds nuw %struct.AVFormatContext, ptr %20, i32 0, i32 4
  %22 = load ptr, ptr %21, align 8, !tbaa !16
  %23 = call i32 @avio_feof(ptr noundef %22)
  %24 = icmp ne i32 %23, 0
  %25 = xor i1 %24, true
  br i1 %25, label %26, label %105

26:                                               ; preds = %19
  %27 = load ptr, ptr %4, align 8, !tbaa !14
  %28 = getelementptr inbounds nuw %struct.AVFormatContext, ptr %27, i32 0, i32 4
  %29 = load ptr, ptr %28, align 8, !tbaa !16
  %30 = call i32 @avio_rl32(ptr noundef %29)
  store i32 %30, ptr %9, align 4, !tbaa !31
  %31 = load ptr, ptr %4, align 8, !tbaa !14
  %32 = getelementptr inbounds nuw %struct.AVFormatContext, ptr %31, i32 0, i32 4
  %33 = load ptr, ptr %32, align 8, !tbaa !16
  %34 = call i32 @avio_rl32(ptr noundef %33)
  store i32 %34, ptr %6, align 4, !tbaa !31
  %35 = load i32, ptr %6, align 4, !tbaa !31
  %36 = icmp eq i32 %35, -1
  br i1 %36, label %37, label %38

37:                                               ; preds = %26
  store i32 -541478725, ptr %3, align 4
  store i32 1, ptr %14, align 4
  br label %106

38:                                               ; preds = %26
  %39 = load i32, ptr %9, align 4, !tbaa !31
  switch i32 %39, label %91 [
    i32 1667510320, label %40
    i32 1651978544, label %41
  ]

40:                                               ; preds = %38
  store i32 1, ptr %12, align 4, !tbaa !31
  br label %41

41:                                               ; preds = %38, %40
  %42 = load i32, ptr %6, align 4, !tbaa !31
  %43 = icmp ult i32 %42, 8
  br i1 %43, label %44, label %45

44:                                               ; preds = %41
  store i32 -1094995529, ptr %3, align 4
  store i32 1, ptr %14, align 4
  br label %106

45:                                               ; preds = %41
  %46 = load i32, ptr %12, align 4, !tbaa !31
  %47 = icmp ne i32 %46, 0
  %48 = select i1 %47, i32 0, i32 1
  store i32 %48, ptr %13, align 4, !tbaa !31
  %49 = load i32, ptr %13, align 4, !tbaa !31
  %50 = load ptr, ptr %4, align 8, !tbaa !14
  %51 = getelementptr inbounds nuw %struct.AVFormatContext, ptr %50, i32 0, i32 6
  %52 = load i32, ptr %51, align 4, !tbaa !56
  %53 = icmp uge i32 %49, %52
  br i1 %53, label %54, label %55

54:                                               ; preds = %45
  store i32 -1094995529, ptr %3, align 4
  store i32 1, ptr %14, align 4
  br label %106

55:                                               ; preds = %45
  %56 = load ptr, ptr %4, align 8, !tbaa !14
  %57 = getelementptr inbounds nuw %struct.AVFormatContext, ptr %56, i32 0, i32 4
  %58 = load ptr, ptr %57, align 8, !tbaa !16
  %59 = call i32 @avio_rl32(ptr noundef %58)
  store i32 %59, ptr %8, align 4, !tbaa !31
  %60 = load ptr, ptr %4, align 8, !tbaa !14
  %61 = getelementptr inbounds nuw %struct.AVFormatContext, ptr %60, i32 0, i32 4
  %62 = load ptr, ptr %61, align 8, !tbaa !16
  %63 = call i32 @avio_rl32(ptr noundef %62)
  store i32 %63, ptr %7, align 4, !tbaa !31
  %64 = load ptr, ptr %4, align 8, !tbaa !14
  %65 = getelementptr inbounds nuw %struct.AVFormatContext, ptr %64, i32 0, i32 4
  %66 = load ptr, ptr %65, align 8, !tbaa !16
  %67 = load ptr, ptr %5, align 8, !tbaa !54
  %68 = load i32, ptr %6, align 4, !tbaa !31
  %69 = sub i32 %68, 8
  %70 = call i32 @av_get_packet(ptr noundef %66, ptr noundef %67, i32 noundef %69)
  store i32 %70, ptr %11, align 4, !tbaa !31
  %71 = load i32, ptr %7, align 4, !tbaa !31
  %72 = and i32 %71, 4096
  %73 = icmp ne i32 %72, 0
  br i1 %73, label %74, label %79

74:                                               ; preds = %55
  %75 = load ptr, ptr %5, align 8, !tbaa !54
  %76 = getelementptr inbounds nuw %struct.AVPacket, ptr %75, i32 0, i32 6
  %77 = load i32, ptr %76, align 8, !tbaa !57
  %78 = or i32 %77, 1
  store i32 %78, ptr %76, align 8, !tbaa !57
  br label %79

79:                                               ; preds = %74, %55
  %80 = load i32, ptr %13, align 4, !tbaa !31
  %81 = load ptr, ptr %5, align 8, !tbaa !54
  %82 = getelementptr inbounds nuw %struct.AVPacket, ptr %81, i32 0, i32 5
  store i32 %80, ptr %82, align 4, !tbaa !58
  %83 = load i32, ptr %8, align 4, !tbaa !31
  %84 = zext i32 %83 to i64
  %85 = load ptr, ptr %5, align 8, !tbaa !54
  %86 = getelementptr inbounds nuw %struct.AVPacket, ptr %85, i32 0, i32 1
  store i64 %84, ptr %86, align 8, !tbaa !59
  %87 = load i64, ptr %10, align 8, !tbaa !32
  %88 = load ptr, ptr %5, align 8, !tbaa !54
  %89 = getelementptr inbounds nuw %struct.AVPacket, ptr %88, i32 0, i32 10
  store i64 %87, ptr %89, align 8, !tbaa !60
  %90 = load i32, ptr %11, align 4, !tbaa !31
  store i32 %90, ptr %3, align 4
  store i32 1, ptr %14, align 4
  br label %106

91:                                               ; preds = %38
  %92 = load ptr, ptr %4, align 8, !tbaa !14
  %93 = getelementptr inbounds nuw %struct.AVFormatContext, ptr %92, i32 0, i32 4
  %94 = load ptr, ptr %93, align 8, !tbaa !16
  %95 = load i32, ptr %6, align 4, !tbaa !31
  %96 = zext i32 %95 to i64
  %97 = call i64 @avio_skip(ptr noundef %94, i64 noundef %96)
  %98 = trunc i64 %97 to i32
  store i32 %98, ptr %11, align 4, !tbaa !31
  br label %99

99:                                               ; preds = %91
  %100 = load i32, ptr %11, align 4, !tbaa !31
  %101 = icmp slt i32 %100, 0
  br i1 %101, label %102, label %104

102:                                              ; preds = %99
  %103 = load i32, ptr %11, align 4, !tbaa !31
  store i32 %103, ptr %3, align 4
  store i32 1, ptr %14, align 4
  br label %106

104:                                              ; preds = %99
  br label %19, !llvm.loop !61

105:                                              ; preds = %19
  store i32 -541478725, ptr %3, align 4
  store i32 1, ptr %14, align 4
  br label %106

106:                                              ; preds = %105, %102, %79, %54, %44, %37
  call void @llvm.lifetime.end.p0(i64 4, ptr %13) #4
  call void @llvm.lifetime.end.p0(i64 4, ptr %12) #4
  call void @llvm.lifetime.end.p0(i64 4, ptr %11) #4
  call void @llvm.lifetime.end.p0(i64 8, ptr %10) #4
  call void @llvm.lifetime.end.p0(i64 4, ptr %9) #4
  call void @llvm.lifetime.end.p0(i64 4, ptr %8) #4
  call void @llvm.lifetime.end.p0(i64 4, ptr %7) #4
  call void @llvm.lifetime.end.p0(i64 4, ptr %6) #4
  %107 = load i32, ptr %3, align 4
  ret i32 %107
}