; Function Attrs: nounwind uwtable
define internal i32 @lvf_read_packet(ptr noundef readonly captures(none) %0, ptr noundef %1) #1 {
  %3 = getelementptr inbounds nuw i8, ptr %0, i64 32
  %4 = load ptr, ptr %3, align 8, !tbaa !12
  %5 = tail call i64 @avio_seek(ptr noundef %4, i64 noundef 0, i32 noundef 1) #3
  br label %6

6:                                                ; preds = %38, %2
  %7 = load ptr, ptr %3, align 8, !tbaa !12
  %8 = tail call i32 @avio_feof(ptr noundef %7) #3
  %.not = icmp eq i32 %8, 0
  br i1 %.not, label %9, label %.loopexit

9:                                                ; preds = %6
  %10 = load ptr, ptr %3, align 8, !tbaa !12
  %11 = tail call i32 @avio_rl32(ptr noundef %10) #3
  %12 = load ptr, ptr %3, align 8, !tbaa !12
  %13 = tail call i32 @avio_rl32(ptr noundef %12) #3
  %14 = icmp eq i32 %13, -1
  br i1 %14, label %.loopexit, label %15

15:                                               ; preds = %9
  switch i32 %11, label %38 [
    i32 1667510320, label %.loopexit35
    i32 1651978544, label %.loopexit35.loopexit
  ]

.loopexit35.loopexit:                             ; preds = %15
  br label %.loopexit35

.loopexit35:                                      ; preds = %15, %.loopexit35.loopexit
  %.not32 = phi i32 [ 1, %.loopexit35.loopexit ], [ 0, %15 ]
  %16 = icmp ult i32 %13, 8
  br i1 %16, label %.loopexit, label %17

17:                                               ; preds = %.loopexit35
  %18 = getelementptr inbounds nuw i8, ptr %0, i64 44
  %19 = load i32, ptr %18, align 4, !tbaa !46
  %.not33 = icmp ult i32 %.not32, %19
  br i1 %.not33, label %20, label %.loopexit

20:                                               ; preds = %17
  %21 = load ptr, ptr %3, align 8, !tbaa !12
  %22 = tail call i32 @avio_rl32(ptr noundef %21) #3
  %23 = load ptr, ptr %3, align 8, !tbaa !12
  %24 = tail call i32 @avio_rl32(ptr noundef %23) #3
  %25 = load ptr, ptr %3, align 8, !tbaa !12
  %26 = add i32 %13, -8
  %27 = tail call i32 @av_get_packet(ptr noundef %25, ptr noundef %1, i32 noundef %26) #3
  %28 = and i32 %24, 4096
  %.not34 = icmp eq i32 %28, 0
  br i1 %.not34, label %33, label %29

29:                                               ; preds = %20
  %30 = getelementptr inbounds nuw i8, ptr %1, i64 40
  %31 = load i32, ptr %30, align 8, !tbaa !47
  %32 = or i32 %31, 1
  store i32 %32, ptr %30, align 8, !tbaa !47
  br label %33

33:                                               ; preds = %29, %20
  %34 = getelementptr inbounds nuw i8, ptr %1, i64 36
  store i32 %.not32, ptr %34, align 4, !tbaa !48
  %35 = zext i32 %22 to i64
  %36 = getelementptr inbounds nuw i8, ptr %1, i64 8
  store i64 %35, ptr %36, align 8, !tbaa !49
  %37 = getelementptr inbounds nuw i8, ptr %1, i64 72
  store i64 %5, ptr %37, align 8, !tbaa !50
  br label %.loopexit

38:                                               ; preds = %15
  %39 = load ptr, ptr %3, align 8, !tbaa !12
  %40 = zext i32 %13 to i64
  %41 = tail call i64 @avio_skip(ptr noundef %39, i64 noundef %40) #3
  %42 = trunc i64 %41 to i32
  %43 = icmp slt i32 %42, 0
  br i1 %43, label %.loopexit, label %6, !llvm.loop !51

.loopexit:                                        ; preds = %6, %38, %9, %17, %.loopexit35, %33
  %.0 = phi i32 [ %27, %33 ], [ -1094995529, %.loopexit35 ], [ -1094995529, %17 ], [ -541478725, %6 ], [ %42, %38 ], [ -541478725, %9 ]
  ret i32 %.0
}